target datalayout = "e-m:e-p270:32:32-p271:32:32-p272:64:64-i64:64-i128:128-f80:128-n8:16:32:64-S128"
target triple = "x86_64-pc-linux-gnu"

@.str.75 = private unnamed_addr constant [72 x i8] c"%s restores a PostgreSQL database from an archive created by pg_dump.\0A\0A\00", align 1
@.str.76 = private unnamed_addr constant [8 x i8] c"Usage:\0A\00", align 1
@.str.77 = private unnamed_addr constant [25 x i8] c"  %s [OPTION]... [FILE]\0A\00", align 1
@.str.78 = private unnamed_addr constant [19 x i8] c"\0AGeneral options:\0A\00", align 1
@.str.79 = private unnamed_addr constant [53 x i8] c"  -d, --dbname=NAME        connect to database name\0A\00", align 1
@.str.80 = private unnamed_addr constant [60 x i8] c"  -f, --file=FILENAME      output file name (- for stdout)\0A\00", align 1
@.str.81 = private unnamed_addr constant [69 x i8] c"  -F, --format=c|d|t       backup file format (should be automatic)\0A\00", align 1
@.str.82 = private unnamed_addr constant [64 x i8] c"  -l, --list               print summarized TOC of the archive\0A\00", align 1
@.str.83 = private unnamed_addr constant [41 x i8] c"  -v, --verbose            verbose mode\0A\00", align 1
@.str.84 = private unnamed_addr constant [66 x i8] c"  -V, --version            output version information, then exit\0A\00", align 1
@.str.85 = private unnamed_addr constant [54 x i8] c"  -?, --help               show this help, then exit\0A\00", align 1
@.str.86 = private unnamed_addr constant [35 x i8] c"\0AOptions controlling the restore:\0A\00", align 1
@.str.87 = private unnamed_addr constant [65 x i8] c"  -a, --data-only              restore only the data, no schema\0A\00", align 1
@.str.88 = private unnamed_addr constant [80 x i8] c"  -c, --clean                  clean (drop) database objects before recreating\0A\00", align 1
@.str.89 = private unnamed_addr constant [59 x i8] c"  -C, --create                 create the target database\0A\00", align 1
@.str.90 = private unnamed_addr constant [70 x i8] c"  -e, --exit-on-error          exit on error, default is to continue\0A\00", align 1
@.str.91 = private unnamed_addr constant [52 x i8] c"  -I, --index=NAME             restore named index\0A\00", align 1
@.str.92 = private unnamed_addr constant [71 x i8] c"  -j, --jobs=NUM               use this many parallel jobs to restore\0A\00", align 1
@.str.93 = private unnamed_addr constant [130 x i8] c"  -L, --use-list=FILENAME      use table of contents from this file for\0A                               selecting/ordering output\0A\00", align 1
@.str.94 = private unnamed_addr constant [68 x i8] c"  -n, --schema=NAME            restore only objects in this schema\0A\00", align 1
@.str.95 = private unnamed_addr constant [70 x i8] c"  -N, --exclude-schema=NAME    do not restore objects in this schema\0A\00", align 1
@.str.96 = private unnamed_addr constant [69 x i8] c"  -O, --no-owner               skip restoration of object ownership\0A\00", align 1
@.str.97 = private unnamed_addr constant [55 x i8] c"  -P, --function=NAME(args)    restore named function\0A\00", align 1
@.str.98 = private unnamed_addr constant [65 x i8] c"  -s, --schema-only            restore only the schema, no data\0A\00", align 1
@.str.99 = private unnamed_addr constant [82 x i8] c"  -S, --superuser=NAME         superuser user name to use for disabling triggers\0A\00", align 1
@.str.100 = private unnamed_addr constant [75 x i8] c"  -t, --table=NAME             restore named relation (table, view, etc.)\0A\00", align 1
@.str.101 = private unnamed_addr constant [54 x i8] c"  -T, --trigger=NAME           restore named trigger\0A\00", align 1
@.str.102 = private unnamed_addr constant [85 x i8] c"  -x, --no-privileges          skip restoration of access privileges (grant/revoke)\0A\00", align 1
@.str.103 = private unnamed_addr constant [64 x i8] c"  -1, --single-transaction     restore as a single transaction\0A\00", align 1
@.str.104 = private unnamed_addr constant [74 x i8] c"  --disable-triggers           disable triggers during data-only restore\0A\00", align 1
@.str.105 = private unnamed_addr constant [52 x i8] c"  --enable-row-security        enable row security\0A\00", align 1
@.str.106 = private unnamed_addr constant [120 x i8] c"  --filter=FILENAME            restore or skip objects based on expressions\0A                               in FILENAME\0A\00", align 1
@.str.107 = private unnamed_addr constant [68 x i8] c"  --if-exists                  use IF EXISTS when dropping objects\0A\00", align 1
@.str.108 = private unnamed_addr constant [64 x i8] c"  --no-comments                do not restore comment commands\0A\00", align 1
@.str.109 = private unnamed_addr constant [119 x i8] c"  --no-data-for-failed-tables  do not restore data of tables that could not be\0A                               created\0A\00", align 1
@.str.110 = private unnamed_addr constant [60 x i8] c"  --no-publications            do not restore publications\0A\00", align 1
@.str.111 = private unnamed_addr constant [63 x i8] c"  --no-security-labels         do not restore security labels\0A\00", align 1
@.str.112 = private unnamed_addr constant [61 x i8] c"  --no-subscriptions           do not restore subscriptions\0A\00", align 1
@.str.113 = private unnamed_addr constant [68 x i8] c"  --no-table-access-method     do not restore table access methods\0A\00", align 1
@.str.114 = private unnamed_addr constant [70 x i8] c"  --no-tablespaces             do not restore tablespace assignments\0A\00", align 1
@.str.115 = private unnamed_addr constant [85 x i8] c"  --section=SECTION            restore named section (pre-data, data, or post-data)\0A\00", align 1
@.str.116 = private unnamed_addr constant [142 x i8] c"  --strict-names               require table and/or schema include patterns to\0A                               match at least one entity each\0A\00", align 1
@.str.117 = private unnamed_addr constant [61 x i8] c"  --transaction-size=N         commit after every N objects\0A\00", align 1
@.str.118 = private unnamed_addr constant [185 x i8] c"  --use-set-session-authorization\0A                               use SET SESSION AUTHORIZATION commands instead of\0A                               ALTER OWNER commands to set ownership\0A\00", align 1
@.str.119 = private unnamed_addr constant [22 x i8] c"\0AConnection options:\0A\00", align 1
@.str.120 = private unnamed_addr constant [69 x i8] c"  -h, --host=HOSTNAME      database server host or socket directory\0A\00", align 1
@.str.121 = private unnamed_addr constant [56 x i8] c"  -p, --port=PORT          database server port number\0A\00", align 1
@.str.122 = private unnamed_addr constant [63 x i8] c"  -U, --username=NAME      connect as specified database user\0A\00", align 1
@.str.123 = private unnamed_addr constant [54 x i8] c"  -w, --no-password        never prompt for password\0A\00", align 1
@.str.124 = private unnamed_addr constant [80 x i8] c"  -W, --password           force password prompt (should happen automatically)\0A\00", align 1
@.str.125 = private unnamed_addr constant [55 x i8] c"  --role=ROLENAME          do SET ROLE before restore\0A\00", align 1
@.str.126 = private unnamed_addr constant [125 x i8] c"\0AThe options -I, -n, -N, -P, -t, -T, and --section can be combined and specified\0Amultiple times to select multiple objects.\0A\00", align 1
@.str.127 = private unnamed_addr constant [67 x i8] c"\0AIf no input file name is supplied, then standard input is used.\0A\0A\00", align 1
@.str.128 = private unnamed_addr constant [22 x i8] c"Report bugs to <%s>.\0A\00", align 1
@.str.129 = private unnamed_addr constant [32 x i8] c"pgsql-bugs@lists.postgresql.org\00", align 1
@.str.130 = private unnamed_addr constant [20 x i8] c"%s home page: <%s>\0A\00", align 1
@.str.131 = private unnamed_addr constant [11 x i8] c"PostgreSQL\00", align 1
@.str.132 = private unnamed_addr constant [28 x i8] c"https://www.postgresql.org/\00", align 1

; Function Attrs: nounwind uwtable
define internal void @usage(ptr noundef %0) #0 {
  %2 = alloca ptr, align 8
  store ptr %0, ptr %2, align 8
  %3 = load ptr, ptr %2, align 8
  %4 = call i32 (ptr, ...) @pg_printf(ptr noundef @.str.75, ptr noundef %3)
  %5 = call i32 (ptr, ...) @pg_printf(ptr noundef @.str.76)
  %6 = load ptr, ptr %2, align 8
  %7 = call i32 (ptr, ...) @pg_printf(ptr noundef @.str.77, ptr noundef %6)
  %8 = call i32 (ptr, ...) @pg_printf(ptr noundef @.str.78)
  %9 = call i32 (ptr, ...) @pg_printf(ptr noundef @.str.79)
  %10 = call i32 (ptr, ...) @pg_printf(ptr noundef @.str.80)
  %11 = call i32 (ptr, ...) @pg_printf(ptr noundef @.str.81)
  %12 = call i32 (ptr, ...) @pg_printf(ptr noundef @.str.82)
  %13 = call i32 (ptr, ...) @pg_printf(ptr noundef @.str.83)
  %14 = call i32 (ptr, ...) @pg_printf(ptr noundef @.str.84)
  %15 = call i32 (ptr, ...) @pg_printf(ptr noundef @.str.85)
  %16 = call i32 (ptr, ...) @pg_printf(ptr noundef @.str.86)
  %17 = call i32 (ptr, ...) @pg_printf(ptr noundef @.str.87)
  %18 = call i32 (ptr, ...) @pg_printf(ptr noundef @.str.88)
  %19 = call i32 (ptr, ...) @pg_printf(ptr noundef @.str.89)
  %20 = call i32 (ptr, ...) @pg_printf(ptr noundef @.str.90)
  %21 = call i32 (ptr, ...) @pg_printf(ptr noundef @.str.91)
  %22 = call i32 (ptr, ...) @pg_printf(ptr noundef @.str.92)
  %23 = call i32 (ptr, ...) @pg_printf(ptr noundef @.str.93)
  %24 = call i32 (ptr, ...) @pg_printf(ptr noundef @.str.94)
  %25 = call i32 (ptr, ...) @pg_printf(ptr noundef @.str.95)
  %26 = call i32 (ptr, ...) @pg_printf(ptr noundef @.str.96)
  %27 = call i32 (ptr, ...) @pg_printf(ptr noundef @.str.97)
  %28 = call i32 (ptr, ...) @pg_printf(ptr noundef @.str.98)
  %29 = call i32 (ptr, ...) @pg_printf(ptr noundef @.str.99)
  %30 = call i32 (ptr, ...) @pg_printf(ptr noundef @.str.100)
  %31 = call i32 (ptr, ...) @pg_printf(ptr noundef @.str.101)
  %32 = call i32 (ptr, ...) @pg_printf(ptr noundef @.str.102)
  %33 = call i32 (ptr, ...) @pg_printf(ptr noundef @.str.103)
  %34 = call i32 (ptr, ...) @pg_printf(ptr noundef @.str.104)
  %35 = call i32 (ptr, ...) @pg_printf(ptr noundef @.str.105)
  %36 = call i32 (ptr, ...) @pg_printf(ptr noundef @.str.106)
  %37 = call i32 (ptr, ...) @pg_printf(ptr noundef @.str.107)
  %38 = call i32 (ptr, ...) @pg_printf(ptr noundef @.str.108)
  %39 = call i32 (ptr, ...) @pg_printf(ptr noundef @.str.109)
  %40 = call i32 (ptr, ...) @pg_printf(ptr noundef @.str.110)
  %41 = call i32 (ptr, ...) @pg_printf(ptr noundef @.str.111)
  %42 = call i32 (ptr, ...) @pg_printf(ptr noundef @.str.112)
  %43 = call i32 (ptr, ...) @pg_printf(ptr noundef @.str.113)
  %44 = call i32 (ptr, ...) @pg_printf(ptr noundef @.str.114)
  %45 = call i32 (ptr, ...) @pg_printf(ptr noundef @.str.115)
  %46 = call i32 (ptr, ...) @pg_printf(ptr noundef @.str.116)
  %47 = call i32 (ptr, ...) @pg_printf(ptr noundef @.str.117)
  %48 = call i32 (ptr, ...) @pg_printf(ptr noundef @.str.118)
  %49 = call i32 (ptr, ...) @pg_printf(ptr noundef @.str.119)
  %50 = call i32 (ptr, ...) @pg_printf(ptr noundef @.str.120)
  %51 = call i32 (ptr, ...) @pg_printf(ptr noundef @.str.121)
  %52 = call i32 (ptr, ...) @pg_printf(ptr noundef @.str.122)
  %53 = call i32 (ptr, ...) @pg_printf(ptr noundef @.str.123)
  %54 = call i32 (ptr, ...) @pg_printf(ptr noundef @.str.124)
  %55 = call i32 (ptr, ...) @pg_printf(ptr noundef @.str.125)
  %56 = call i32 (ptr, ...) @pg_printf(ptr noundef @.str.126)
  %57 = call i32 (ptr, ...) @pg_printf(ptr noundef @.str.127)
  %58 = call i32 (ptr, ...) @pg_printf(ptr noundef @.str.128, ptr noundef @.str.129)
  %59 = call i32 (ptr, ...) @pg_printf(ptr noundef @.str.130, ptr noundef @.str.131, ptr noundef @.str.132)
  ret void
}