; Function Attrs: nounwind uwtable
define internal fastcc void @usage(ptr noundef %0) unnamed_addr #0 {
  %2 = tail call i32 (ptr, ...) @pg_printf(ptr noundef nonnull @.str.75, ptr noundef %0) #10
  %3 = tail call i32 (ptr, ...) @pg_printf(ptr noundef nonnull @.str.76) #10
  %4 = tail call i32 (ptr, ...) @pg_printf(ptr noundef nonnull @.str.77, ptr noundef %0) #10
  %5 = tail call i32 (ptr, ...) @pg_printf(ptr noundef nonnull @.str.78) #10
  %6 = tail call i32 (ptr, ...) @pg_printf(ptr noundef nonnull @.str.79) #10
  %7 = tail call i32 (ptr, ...) @pg_printf(ptr noundef nonnull @.str.80) #10
  %8 = tail call i32 (ptr, ...) @pg_printf(ptr noundef nonnull @.str.81) #10
  %9 = tail call i32 (ptr, ...) @pg_printf(ptr noundef nonnull @.str.82) #10
  %10 = tail call i32 (ptr, ...) @pg_printf(ptr noundef nonnull @.str.83) #10
  %11 = tail call i32 (ptr, ...) @pg_printf(ptr noundef nonnull @.str.84) #10
  %12 = tail call i32 (ptr, ...) @pg_printf(ptr noundef nonnull @.str.85) #10
  %13 = tail call i32 (ptr, ...) @pg_printf(ptr noundef nonnull @.str.86) #10
  %14 = tail call i32 (ptr, ...) @pg_printf(ptr noundef nonnull @.str.87) #10
  %15 = tail call i32 (ptr, ...) @pg_printf(ptr noundef nonnull @.str.88) #10
  %16 = tail call i32 (ptr, ...) @pg_printf(ptr noundef nonnull @.str.89) #10
  %17 = tail call i32 (ptr, ...) @pg_printf(ptr noundef nonnull @.str.90) #10
  %18 = tail call i32 (ptr, ...) @pg_printf(ptr noundef nonnull @.str.91) #10
  %19 = tail call i32 (ptr, ...) @pg_printf(ptr noundef nonnull @.str.92) #10
  %20 = tail call i32 (ptr, ...) @pg_printf(ptr noundef nonnull @.str.93) #10
  %21 = tail call i32 (ptr, ...) @pg_printf(ptr noundef nonnull @.str.94) #10
  %22 = tail call i32 (ptr, ...) @pg_printf(ptr noundef nonnull @.str.95) #10
  %23 = tail call i32 (ptr, ...) @pg_printf(ptr noundef nonnull @.str.96) #10
  %24 = tail call i32 (ptr, ...) @pg_printf(ptr noundef nonnull @.str.97) #10
  %25 = tail call i32 (ptr, ...) @pg_printf(ptr noundef nonnull @.str.98) #10
  %26 = tail call i32 (ptr, ...) @pg_printf(ptr noundef nonnull @.str.99) #10
  %27 = tail call i32 (ptr, ...) @pg_printf(ptr noundef nonnull @.str.100) #10
  %28 = tail call i32 (ptr, ...) @pg_printf(ptr noundef nonnull @.str.101) #10
  %29 = tail call i32 (ptr, ...) @pg_printf(ptr noundef nonnull @.str.102) #10
  %30 = tail call i32 (ptr, ...) @pg_printf(ptr noundef nonnull @.str.103) #10
  %31 = tail call i32 (ptr, ...) @pg_printf(ptr noundef nonnull @.str.104) #10
  %32 = tail call i32 (ptr, ...) @pg_printf(ptr noundef nonnull @.str.105) #10
  %33 = tail call i32 (ptr, ...) @pg_printf(ptr noundef nonnull @.str.106) #10
  %34 = tail call i32 (ptr, ...) @pg_printf(ptr noundef nonnull @.str.107) #10
  %35 = tail call i32 (ptr, ...) @pg_printf(ptr noundef nonnull @.str.108) #10
  %36 = tail call i32 (ptr, ...) @pg_printf(ptr noundef nonnull @.str.109) #10
  %37 = tail call i32 (ptr, ...) @pg_printf(ptr noundef nonnull @.str.110) #10
  %38 = tail call i32 (ptr, ...) @pg_printf(ptr noundef nonnull @.str.111) #10
  %39 = tail call i32 (ptr, ...) @pg_printf(ptr noundef nonnull @.str.112) #10
  %40 = tail call i32 (ptr, ...) @pg_printf(ptr noundef nonnull @.str.113) #10
  %41 = tail call i32 (ptr, ...) @pg_printf(ptr noundef nonnull @.str.114) #10
  %42 = tail call i32 (ptr, ...) @pg_printf(ptr noundef nonnull @.str.115) #10
  %43 = tail call i32 (ptr, ...) @pg_printf(ptr noundef nonnull @.str.116) #10
  %44 = tail call i32 (ptr, ...) @pg_printf(ptr noundef nonnull @.str.117) #10
  %45 = tail call i32 (ptr, ...) @pg_printf(ptr noundef nonnull @.str.118) #10
  %46 = tail call i32 (ptr, ...) @pg_printf(ptr noundef nonnull @.str.119) #10
  %47 = tail call i32 (ptr, ...) @pg_printf(ptr noundef nonnull @.str.120) #10
  %48 = tail call i32 (ptr, ...) @pg_printf(ptr noundef nonnull @.str.121) #10
  %49 = tail call i32 (ptr, ...) @pg_printf(ptr noundef nonnull @.str.122) #10
  %50 = tail call i32 (ptr, ...) @pg_printf(ptr noundef nonnull @.str.123) #10
  %51 = tail call i32 (ptr, ...) @pg_printf(ptr noundef nonnull @.str.124) #10
  %52 = tail call i32 (ptr, ...) @pg_printf(ptr noundef nonnull @.str.125) #10
  %53 = tail call i32 (ptr, ...) @pg_printf(ptr noundef nonnull @.str.126) #10
  %54 = tail call i32 (ptr, ...) @pg_printf(ptr noundef nonnull @.str.127) #10
  %55 = tail call i32 (ptr, ...) @pg_printf(ptr noundef nonnull @.str.128, ptr noundef nonnull @.str.129) #10
  %56 = tail call i32 (ptr, ...) @pg_printf(ptr noundef nonnull @.str.130, ptr noundef nonnull @.str.131, ptr noundef nonnull @.str.132) #10
  ret void
}